target datalayout = "e-m:e-p270:32:32-p271:32:32-p272:64:64-i64:64-i128:128-f80:128-n8:16:32:64-S128"
target triple = "x86_64-pc-linux-gnu"

@slru_names = internal constant [8 x ptr] [ptr @.str, ptr @.str.1, ptr @.str.2, ptr @.str.3, ptr @.str.4, ptr @.str.5, ptr @.str.6, ptr @.str.7], align 16

; Function Attrs: nounwind uwtable
define dso_local i32 @pgstat_get_slru_index(ptr noundef %0) #0 {
  %2 = alloca i32, align 4
  %3 = alloca ptr, align 8
  %4 = alloca i32, align 4
  %5 = alloca i32, align 4
  store ptr %0, ptr %3, align 8
  call void @llvm.lifetime.start.p0(i64 4, ptr %4) #7
  store i32 0, ptr %4, align 4
  br label %6

6:                                                ; preds = %21, %1
  %7 = load i32, ptr %4, align 4
  %8 = sext i32 %7 to i64
  %9 = icmp ult i64 %8, 8
  br i1 %9, label %10, label %24

10:                                               ; preds = %6
  %11 = load i32, ptr %4, align 4
  %12 = sext i32 %11 to i64
  %13 = getelementptr inbounds [8 x ptr], ptr @slru_names, i64 0, i64 %12
  %14 = load ptr, ptr %13, align 8
  %15 = load ptr, ptr %3, align 8
  %16 = call i32 @strcmp(ptr noundef %14, ptr noundef %15) #8
  %17 = icmp eq i32 %16, 0
  br i1 %17, label %18, label %20

18:                                               ; preds = %10
  %19 = load i32, ptr %4, align 4
  store i32 %19, ptr %2, align 4
  store i32 1, ptr %5, align 4
  br label %25

20:                                               ; preds = %10
  br label %21

21:                                               ; preds = %20
  %22 = load i32, ptr %4, align 4
  %23 = add i32 %22, 1
  store i32 %23, ptr %4, align 4
  br label %6, !llvm.loop !4

24:                                               ; preds = %6
  store i32 7, ptr %2, align 4
  store i32 1, ptr %5, align 4
  br label %25

25:                                               ; preds = %24, %18
  call void @llvm.lifetime.end.p0(i64 4, ptr %4) #7
  %26 = load i32, ptr %2, align 4
  ret i32 %26
}